(lp0
S'poi'
p1
aS'deferral_payments'
p2
aS'total_payments'
p3
aS'loan_advances'
p4
aS'deferred_income'
p5
aS'total_stock_value'
p6
aS'exercised_stock_options'
p7
aS'director_fees'
p8
aS'to_messages'
p9
aS'from_poi_to_this_person'
p10
aS'from_this_person_to_poi'
p11
aS'shared_receipt_with_poi'
p12
aS'bonus_per_salary'
p13
aS'ratio_emails_from_poi'
p14
aS'ratio_emails_to_poi'
p15
a.